; Function Attrs: mustprogress uwtable
define void @_ZN10ImDrawList7AddQuadERK6ImVec2S2_S2_S2_jf(ptr noundef nonnull align 8 captures(none) dereferenceable(216) %0, ptr noundef nonnull readonly align 4 captures(none) dereferenceable(8) %1, ptr noundef nonnull readonly align 4 captures(none) dereferenceable(8) %2, ptr noundef nonnull readonly align 4 captures(none) dereferenceable(8) %3, ptr noundef nonnull readonly align 4 captures(none) dereferenceable(8) %4, i32 noundef %5, float noundef %6) local_unnamed_addr #12 align 2 {
  %8 = icmp ult i32 %5, 16777216
  br i1 %8, label %123, label %9

9:                                                ; preds = %7
  %10 = getelementptr inbounds nuw i8, ptr %0, i64 80
  %11 = load i32, ptr %10, align 8, !tbaa !67
  %12 = getelementptr inbounds nuw i8, ptr %0, i64 84
  %13 = load i32, ptr %12, align 4, !tbaa !66
  %14 = icmp eq i32 %11, %13
  br i1 %14, label %15, label %._ZN8ImVectorI6ImVec2E7reserveEi.exit_crit_edge.i.i

._ZN8ImVectorI6ImVec2E7reserveEi.exit_crit_edge.i.i: ; preds = %9
  %.phi.trans.insert.i.i = getelementptr inbounds nuw i8, ptr %0, i64 88
  %.pre.i.i = load ptr, ptr %.phi.trans.insert.i.i, align 8, !tbaa !49
  br label %_ZN10ImDrawList10PathLineToERK6ImVec2.exit

15:                                               ; preds = %9
  %16 = add nsw i32 %11, 1
  %.not.i.i.i = icmp eq i32 %11, 0
  br i1 %.not.i.i.i, label %_ZNK8ImVectorI6ImVec2E14_grow_capacityEi.exit.i.i, label %17

17:                                               ; preds = %15
  %18 = sdiv i32 %11, 2
  %19 = add nsw i32 %18, %11
  br label %_ZNK8ImVectorI6ImVec2E14_grow_capacityEi.exit.i.i

_ZNK8ImVectorI6ImVec2E14_grow_capacityEi.exit.i.i: ; preds = %17, %15
  %20 = phi i32 [ %19, %17 ], [ 8, %15 ]
  %21 = tail call noundef i32 @llvm.smax.i32(i32 %20, i32 %16)
  %22 = sext i32 %21 to i64
  %23 = shl nsw i64 %22, 3
  %24 = tail call noundef ptr @_ZN5ImGui8MemAllocEm(i64 noundef %23)
  %25 = getelementptr inbounds nuw i8, ptr %0, i64 88
  %26 = load ptr, ptr %25, align 8, !tbaa !49
  %.not6.i.i.i = icmp eq ptr %26, null
  br i1 %.not6.i.i.i, label %32, label %27

27:                                               ; preds = %_ZNK8ImVectorI6ImVec2E14_grow_capacityEi.exit.i.i
  %28 = load i32, ptr %10, align 8, !tbaa !67
  %29 = sext i32 %28 to i64
  %30 = shl nsw i64 %29, 3
  tail call void @llvm.memcpy.p0.p0.i64(ptr align 4 %24, ptr nonnull align 4 %26, i64 %30, i1 false)
  %31 = load ptr, ptr %25, align 8, !tbaa !49
  tail call void @_ZN5ImGui7MemFreeEPv(ptr noundef %31)
  br label %32

32:                                               ; preds = %27, %_ZNK8ImVectorI6ImVec2E14_grow_capacityEi.exit.i.i
  store ptr %24, ptr %25, align 8, !tbaa !49
  store i32 %21, ptr %12, align 4, !tbaa !66
  %.pre3.i.i = load i32, ptr %10, align 8, !tbaa !67
  br label %_ZN10ImDrawList10PathLineToERK6ImVec2.exit

_ZN10ImDrawList10PathLineToERK6ImVec2.exit:       ; preds = %._ZN8ImVectorI6ImVec2E7reserveEi.exit_crit_edge.i.i, %32
  %33 = phi i32 [ %11, %._ZN8ImVectorI6ImVec2E7reserveEi.exit_crit_edge.i.i ], [ %.pre3.i.i, %32 ]
  %34 = phi ptr [ %.pre.i.i, %._ZN8ImVectorI6ImVec2E7reserveEi.exit_crit_edge.i.i ], [ %24, %32 ]
  %35 = sext i32 %33 to i64
  %36 = getelementptr inbounds %struct.ImVec2, ptr %34, i64 %35
  %37 = load i64, ptr %1, align 4
  store i64 %37, ptr %36, align 4
  %38 = load i32, ptr %10, align 8, !tbaa !67
  %39 = add nsw i32 %38, 1
  store i32 %39, ptr %10, align 8, !tbaa !67
  %40 = load i32, ptr %12, align 4, !tbaa !66
  %41 = icmp eq i32 %39, %40
  br i1 %41, label %42, label %._ZN8ImVectorI6ImVec2E7reserveEi.exit_crit_edge.i.i7

._ZN8ImVectorI6ImVec2E7reserveEi.exit_crit_edge.i.i7: ; preds = %_ZN10ImDrawList10PathLineToERK6ImVec2.exit
  %.phi.trans.insert.i.i8 = getelementptr inbounds nuw i8, ptr %0, i64 88
  %.pre.i.i9 = load ptr, ptr %.phi.trans.insert.i.i8, align 8, !tbaa !49
  br label %_ZN10ImDrawList10PathLineToERK6ImVec2.exit14

42:                                               ; preds = %_ZN10ImDrawList10PathLineToERK6ImVec2.exit
  %43 = add nsw i32 %38, 2
  %.not.i.i.i10 = icmp eq i32 %39, 0
  br i1 %.not.i.i.i10, label %_ZNK8ImVectorI6ImVec2E14_grow_capacityEi.exit.i.i11, label %44

44:                                               ; preds = %42
  %45 = sdiv i32 %39, 2
  %46 = add nsw i32 %45, %39
  br label %_ZNK8ImVectorI6ImVec2E14_grow_capacityEi.exit.i.i11

_ZNK8ImVectorI6ImVec2E14_grow_capacityEi.exit.i.i11: ; preds = %44, %42
  %47 = phi i32 [ %46, %44 ], [ 8, %42 ]
  %48 = tail call noundef i32 @llvm.smax.i32(i32 %47, i32 %43)
  %49 = sext i32 %48 to i64
  %50 = shl nsw i64 %49, 3
  %51 = tail call noundef ptr @_ZN5ImGui8MemAllocEm(i64 noundef %50)
  %52 = getelementptr inbounds nuw i8, ptr %0, i64 88
  %53 = load ptr, ptr %52, align 8, !tbaa !49
  %.not6.i.i.i12 = icmp eq ptr %53, null
  br i1 %.not6.i.i.i12, label %59, label %54

54:                                               ; preds = %_ZNK8ImVectorI6ImVec2E14_grow_capacityEi.exit.i.i11
  %55 = load i32, ptr %10, align 8, !tbaa !67
  %56 = sext i32 %55 to i64
  %57 = shl nsw i64 %56, 3
  tail call void @llvm.memcpy.p0.p0.i64(ptr align 4 %51, ptr nonnull align 4 %53, i64 %57, i1 false)
  %58 = load ptr, ptr %52, align 8, !tbaa !49
  tail call void @_ZN5ImGui7MemFreeEPv(ptr noundef %58)
  br label %59

59:                                               ; preds = %54, %_ZNK8ImVectorI6ImVec2E14_grow_capacityEi.exit.i.i11
  store ptr %51, ptr %52, align 8, !tbaa !49
  store i32 %48, ptr %12, align 4, !tbaa !66
  %.pre3.i.i13 = load i32, ptr %10, align 8, !tbaa !67
  br label %_ZN10ImDrawList10PathLineToERK6ImVec2.exit14

_ZN10ImDrawList10PathLineToERK6ImVec2.exit14:     ; preds = %._ZN8ImVectorI6ImVec2E7reserveEi.exit_crit_edge.i.i7, %59
  %60 = phi i32 [ %39, %._ZN8ImVectorI6ImVec2E7reserveEi.exit_crit_edge.i.i7 ], [ %.pre3.i.i13, %59 ]
  %61 = phi ptr [ %.pre.i.i9, %._ZN8ImVectorI6ImVec2E7reserveEi.exit_crit_edge.i.i7 ], [ %51, %59 ]
  %62 = sext i32 %60 to i64
  %63 = getelementptr inbounds %struct.ImVec2, ptr %61, i64 %62
  %64 = load i64, ptr %2, align 4
  store i64 %64, ptr %63, align 4
  %65 = load i32, ptr %10, align 8, !tbaa !67
  %66 = add nsw i32 %65, 1
  store i32 %66, ptr %10, align 8, !tbaa !67
  %67 = load i32, ptr %12, align 4, !tbaa !66
  %68 = icmp eq i32 %66, %67
  br i1 %68, label %69, label %._ZN8ImVectorI6ImVec2E7reserveEi.exit_crit_edge.i.i15

._ZN8ImVectorI6ImVec2E7reserveEi.exit_crit_edge.i.i15: ; preds = %_ZN10ImDrawList10PathLineToERK6ImVec2.exit14
  %.phi.trans.insert.i.i16 = getelementptr inbounds nuw i8, ptr %0, i64 88
  %.pre.i.i17 = load ptr, ptr %.phi.trans.insert.i.i16, align 8, !tbaa !49
  br label %_ZN10ImDrawList10PathLineToERK6ImVec2.exit22

69:                                               ; preds = %_ZN10ImDrawList10PathLineToERK6ImVec2.exit14
  %70 = add nsw i32 %65, 2
  %.not.i.i.i18 = icmp eq i32 %66, 0
  br i1 %.not.i.i.i18, label %_ZNK8ImVectorI6ImVec2E14_grow_capacityEi.exit.i.i19, label %71

71:                                               ; preds = %69
  %72 = sdiv i32 %66, 2
  %73 = add nsw i32 %72, %66
  br label %_ZNK8ImVectorI6ImVec2E14_grow_capacityEi.exit.i.i19

_ZNK8ImVectorI6ImVec2E14_grow_capacityEi.exit.i.i19: ; preds = %71, %69
  %74 = phi i32 [ %73, %71 ], [ 8, %69 ]
  %75 = tail call noundef i32 @llvm.smax.i32(i32 %74, i32 %70)
  %76 = sext i32 %75 to i64
  %77 = shl nsw i64 %76, 3
  %78 = tail call noundef ptr @_ZN5ImGui8MemAllocEm(i64 noundef %77)
  %79 = getelementptr inbounds nuw i8, ptr %0, i64 88
  %80 = load ptr, ptr %79, align 8, !tbaa !49
  %.not6.i.i.i20 = icmp eq ptr %80, null
  br i1 %.not6.i.i.i20, label %86, label %81

81:                                               ; preds = %_ZNK8ImVectorI6ImVec2E14_grow_capacityEi.exit.i.i19
  %82 = load i32, ptr %10, align 8, !tbaa !67
  %83 = sext i32 %82 to i64
  %84 = shl nsw i64 %83, 3
  tail call void @llvm.memcpy.p0.p0.i64(ptr align 4 %78, ptr nonnull align 4 %80, i64 %84, i1 false)
  %85 = load ptr, ptr %79, align 8, !tbaa !49
  tail call void @_ZN5ImGui7MemFreeEPv(ptr noundef %85)
  br label %86

86:                                               ; preds = %81, %_ZNK8ImVectorI6ImVec2E14_grow_capacityEi.exit.i.i19
  store ptr %78, ptr %79, align 8, !tbaa !49
  store i32 %75, ptr %12, align 4, !tbaa !66
  %.pre3.i.i21 = load i32, ptr %10, align 8, !tbaa !67
  br label %_ZN10ImDrawList10PathLineToERK6ImVec2.exit22

_ZN10ImDrawList10PathLineToERK6ImVec2.exit22:     ; preds = %._ZN8ImVectorI6ImVec2E7reserveEi.exit_crit_edge.i.i15, %86
  %87 = phi i32 [ %66, %._ZN8ImVectorI6ImVec2E7reserveEi.exit_crit_edge.i.i15 ], [ %.pre3.i.i21, %86 ]
  %88 = phi ptr [ %.pre.i.i17, %._ZN8ImVectorI6ImVec2E7reserveEi.exit_crit_edge.i.i15 ], [ %78, %86 ]
  %89 = sext i32 %87 to i64
  %90 = getelementptr inbounds %struct.ImVec2, ptr %88, i64 %89
  %91 = load i64, ptr %3, align 4
  store i64 %91, ptr %90, align 4
  %92 = load i32, ptr %10, align 8, !tbaa !67
  %93 = add nsw i32 %92, 1
  store i32 %93, ptr %10, align 8, !tbaa !67
  %94 = load i32, ptr %12, align 4, !tbaa !66
  %95 = icmp eq i32 %93, %94
  br i1 %95, label %96, label %._ZN8ImVectorI6ImVec2E7reserveEi.exit_crit_edge.i.i23

._ZN8ImVectorI6ImVec2E7reserveEi.exit_crit_edge.i.i23: ; preds = %_ZN10ImDrawList10PathLineToERK6ImVec2.exit22
  %.phi.trans.insert.i.i24 = getelementptr inbounds nuw i8, ptr %0, i64 88
  %.pre.i.i25 = load ptr, ptr %.phi.trans.insert.i.i24, align 8, !tbaa !49
  br label %_ZN10ImDrawList10PathLineToERK6ImVec2.exit30

96:                                               ; preds = %_ZN10ImDrawList10PathLineToERK6ImVec2.exit22
  %97 = add nsw i32 %92, 2
  %.not.i.i.i26 = icmp eq i32 %93, 0
  br i1 %.not.i.i.i26, label %_ZNK8ImVectorI6ImVec2E14_grow_capacityEi.exit.i.i27, label %98

98:                                               ; preds = %96
  %99 = sdiv i32 %93, 2
  %100 = add nsw i32 %99, %93
  br label %_ZNK8ImVectorI6ImVec2E14_grow_capacityEi.exit.i.i27

_ZNK8ImVectorI6ImVec2E14_grow_capacityEi.exit.i.i27: ; preds = %98, %96
  %101 = phi i32 [ %100, %98 ], [ 8, %96 ]
  %102 = tail call noundef i32 @llvm.smax.i32(i32 %101, i32 %97)
  %103 = sext i32 %102 to i64
  %104 = shl nsw i64 %103, 3
  %105 = tail call noundef ptr @_ZN5ImGui8MemAllocEm(i64 noundef %104)
  %106 = getelementptr inbounds nuw i8, ptr %0, i64 88
  %107 = load ptr, ptr %106, align 8, !tbaa !49
  %.not6.i.i.i28 = icmp eq ptr %107, null
  br i1 %.not6.i.i.i28, label %113, label %108

108:                                              ; preds = %_ZNK8ImVectorI6ImVec2E14_grow_capacityEi.exit.i.i27
  %109 = load i32, ptr %10, align 8, !tbaa !67
  %110 = sext i32 %109 to i64
  %111 = shl nsw i64 %110, 3
  tail call void @llvm.memcpy.p0.p0.i64(ptr align 4 %105, ptr nonnull align 4 %107, i64 %111, i1 false)
  %112 = load ptr, ptr %106, align 8, !tbaa !49
  tail call void @_ZN5ImGui7MemFreeEPv(ptr noundef %112)
  br label %113

113:                                              ; preds = %108, %_ZNK8ImVectorI6ImVec2E14_grow_capacityEi.exit.i.i27
  store ptr %105, ptr %106, align 8, !tbaa !49
  store i32 %102, ptr %12, align 4, !tbaa !66
  %.pre3.i.i29 = load i32, ptr %10, align 8, !tbaa !67
  br label %_ZN10ImDrawList10PathLineToERK6ImVec2.exit30

_ZN10ImDrawList10PathLineToERK6ImVec2.exit30:     ; preds = %._ZN8ImVectorI6ImVec2E7reserveEi.exit_crit_edge.i.i23, %113
  %114 = phi i32 [ %93, %._ZN8ImVectorI6ImVec2E7reserveEi.exit_crit_edge.i.i23 ], [ %.pre3.i.i29, %113 ]
  %115 = phi ptr [ %.pre.i.i25, %._ZN8ImVectorI6ImVec2E7reserveEi.exit_crit_edge.i.i23 ], [ %105, %113 ]
  %116 = sext i32 %114 to i64
  %117 = getelementptr inbounds %struct.ImVec2, ptr %115, i64 %116
  %118 = load i64, ptr %4, align 4
  store i64 %118, ptr %117, align 4
  %119 = load i32, ptr %10, align 8, !tbaa !67
  %120 = add nsw i32 %119, 1
  store i32 %120, ptr %10, align 8, !tbaa !67
  %121 = getelementptr inbounds nuw i8, ptr %0, i64 88
  %122 = load ptr, ptr %121, align 8, !tbaa !135
  tail call void @_ZN10ImDrawList11AddPolylineEPK6ImVec2ijif(ptr noundef nonnull align 8 dereferenceable(216) %0, ptr noundef %122, i32 noundef %120, i32 noundef %5, i32 noundef 1, float noundef %6)
  store i32 0, ptr %10, align 8, !tbaa !134
  br label %123

123:                                              ; preds = %7, %_ZN10ImDrawList10PathLineToERK6ImVec2.exit30
  ret void
}